target datalayout = "e-m:e-p270:32:32-p271:32:32-p272:64:64-i64:64-i128:128-f80:128-n8:16:32:64-S128"
target triple = "x86_64-pc-linux-gnu"

%struct.mutex_entry = type { i64, i32 }
%struct.PyMutex = type { i8 }

; Function Attrs: inlinehint nounwind uwtable
define internal void @_Py_atomic_store_uint8(ptr noundef %0, i8 noundef zeroext %1) #2 {
  %3 = alloca ptr, align 8
  %4 = alloca i8, align 1
  %5 = alloca i8, align 1
  store ptr %0, ptr %3, align 8, !tbaa !17
  store i8 %1, ptr %4, align 1, !tbaa !13
  %6 = load ptr, ptr %3, align 8, !tbaa !17
  %7 = load i8, ptr %4, align 1, !tbaa !13
  store i8 %7, ptr %5, align 1, !tbaa !13
  %8 = load i8, ptr %5, align 1
  store atomic i8 %8, ptr %6 seq_cst, align 1
  ret void
}

; Function Attrs: nounwind uwtable
define internal void @mutex_unpark(ptr noundef %0, ptr noundef %1, i32 noundef %2) #0 {
  %4 = alloca ptr, align 8
  %5 = alloca ptr, align 8
  %6 = alloca i32, align 4
  %7 = alloca i8, align 1
  %8 = alloca i64, align 8
  %9 = alloca i32, align 4
  store ptr %0, ptr %4, align 8, !tbaa !4
  store ptr %1, ptr %5, align 8, !tbaa !23
  store i32 %2, ptr %6, align 4, !tbaa !11
  call void @llvm.lifetime.start.p0(i64 1, ptr %7) #7
  store i8 0, ptr %7, align 1, !tbaa !13
  %10 = load ptr, ptr %5, align 8, !tbaa !23
  %11 = icmp ne ptr %10, null
  br i1 %11, label %12, label %39

12:                                               ; preds = %3
  call void @llvm.lifetime.start.p0(i64 8, ptr %8) #7
  %13 = call i32 @PyTime_MonotonicRaw(ptr noundef %8)
  call void @llvm.lifetime.start.p0(i64 4, ptr %9) #7
  %14 = load i64, ptr %8, align 8, !tbaa !9
  %15 = load ptr, ptr %5, align 8, !tbaa !23
  %16 = getelementptr inbounds nuw %struct.mutex_entry, ptr %15, i32 0, i32 0
  %17 = load i64, ptr %16, align 8, !tbaa !14
  %18 = icmp sgt i64 %14, %17
  %19 = zext i1 %18 to i32
  store i32 %19, ptr %9, align 4, !tbaa !11
  %20 = load i32, ptr %9, align 4, !tbaa !11
  %21 = load ptr, ptr %5, align 8, !tbaa !23
  %22 = getelementptr inbounds nuw %struct.mutex_entry, ptr %21, i32 0, i32 1
  store i32 %20, ptr %22, align 8, !tbaa !16
  %23 = load i32, ptr %9, align 4, !tbaa !11
  %24 = icmp ne i32 %23, 0
  br i1 %24, label %25, label %30

25:                                               ; preds = %12
  %26 = load i8, ptr %7, align 1, !tbaa !13
  %27 = zext i8 %26 to i32
  %28 = or i32 %27, 1
  %29 = trunc i32 %28 to i8
  store i8 %29, ptr %7, align 1, !tbaa !13
  br label %30

30:                                               ; preds = %25, %12
  %31 = load i32, ptr %6, align 4, !tbaa !11
  %32 = icmp ne i32 %31, 0
  br i1 %32, label %33, label %38

33:                                               ; preds = %30
  %34 = load i8, ptr %7, align 1, !tbaa !13
  %35 = zext i8 %34 to i32
  %36 = or i32 %35, 2
  %37 = trunc i32 %36 to i8
  store i8 %37, ptr %7, align 1, !tbaa !13
  br label %38

38:                                               ; preds = %33, %30
  call void @llvm.lifetime.end.p0(i64 4, ptr %9) #7
  call void @llvm.lifetime.end.p0(i64 8, ptr %8) #7
  br label %39

39:                                               ; preds = %38, %3
  %40 = load ptr, ptr %4, align 8, !tbaa !4
  %41 = getelementptr inbounds nuw %struct.PyMutex, ptr %40, i32 0, i32 0
  %42 = load i8, ptr %7, align 1, !tbaa !13
  call void @_Py_atomic_store_uint8(ptr noundef %41, i8 noundef zeroext %42)
  call void @llvm.lifetime.end.p0(i64 1, ptr %7) #7
  ret void
}