; Function Attrs: nounwind uwtable
define internal void @mutex_unpark(ptr noundef writeonly captures(none) %0, ptr noundef %1, i32 noundef %2) #0 {
  %4 = alloca i64, align 8
  %.not = icmp eq ptr %1, null
  br i1 %.not, label %13, label %5

5:                                                ; preds = %3
  call void @llvm.lifetime.start.p0(i64 8, ptr nonnull %4) #8
  %6 = call i32 @PyTime_MonotonicRaw(ptr noundef nonnull %4) #8
  %7 = load i64, ptr %4, align 8, !tbaa !4
  %8 = load i64, ptr %1, align 8, !tbaa !8
  %9 = icmp sgt i64 %7, %8
  %10 = zext i1 %9 to i32
  %11 = getelementptr inbounds nuw i8, ptr %1, i64 8
  store i32 %10, ptr %11, align 8, !tbaa !11
  %spec.select = zext i1 %9 to i8
  %.not10 = icmp eq i32 %2, 0
  %12 = or disjoint i8 %spec.select, 2
  %.2 = select i1 %.not10, i8 %spec.select, i8 %12
  call void @llvm.lifetime.end.p0(i64 8, ptr nonnull %4) #8
  br label %13

13:                                               ; preds = %5, %3
  %.0 = phi i8 [ %.2, %5 ], [ 0, %3 ]
  store atomic i8 %.0, ptr %0 seq_cst, align 1
  ret void
}